target datalayout = "e-m:e-p270:32:32-p271:32:32-p272:64:64-i64:64-i128:128-f80:128-n8:16:32:64-S128"
target triple = "x86_64-pc-linux-gnu"

%"class.icu_77::CalendarAstronomer" = type <{ double, double, double, double, double, %"class.icu_77::CalendarAstronomer::Equatorial", i8, [7 x i8] }>
%"class.icu_77::CalendarAstronomer::Equatorial" = type { double, double }
%"class.icu_77::CalendarAstronomer::MoonAge" = type { double }

; Function Attrs: inlinehint mustprogress uwtable
define linkonce_odr noundef double @_ZN6icu_779ClockMath11floorDivideEdd(double noundef %0, double noundef %1) #8 comdat align 2 {
  %3 = alloca double, align 8
  %4 = alloca double, align 8
  store double %0, ptr %3, align 8, !tbaa !47
  store double %1, ptr %4, align 8, !tbaa !47
  %5 = load double, ptr %3, align 8, !tbaa !47
  %6 = load double, ptr %4, align 8, !tbaa !47
  %7 = fdiv double %5, %6
  %8 = call double @uprv_floor_77(double noundef %7)
  ret double %8
}

; Function Attrs: mustprogress uwtable
define internal noundef double @_ZN6icu_7712_GLOBAL__N_112millisToDaysEPKNS_8TimeZoneEdR10UErrorCode(ptr noundef %0, double noundef %1, ptr noundef nonnull align 4 dereferenceable(4) %2) #0 {
  %4 = alloca double, align 8
  %5 = alloca ptr, align 8
  %6 = alloca double, align 8
  %7 = alloca ptr, align 8
  %8 = alloca i32, align 4
  %9 = alloca i32, align 4
  %10 = alloca i32, align 4
  store ptr %0, ptr %5, align 8, !tbaa !46
  store double %1, ptr %6, align 8, !tbaa !47
  store ptr %2, ptr %7, align 8, !tbaa !10
  %11 = load ptr, ptr %7, align 8, !tbaa !10
  %12 = load i32, ptr %11, align 4, !tbaa !30
  %13 = call noundef signext i8 @_ZL9U_FAILURE10UErrorCode(i32 noundef %12)
  %14 = icmp ne i8 %13, 0
  br i1 %14, label %15, label %16

15:                                               ; preds = %3
  store double 0.000000e+00, ptr %4, align 8
  br label %44

16:                                               ; preds = %3
  %17 = load ptr, ptr %5, align 8, !tbaa !46
  %18 = icmp ne ptr %17, null
  br i1 %18, label %19, label %40

19:                                               ; preds = %16
  call void @llvm.lifetime.start.p0(i64 4, ptr %8) #13
  call void @llvm.lifetime.start.p0(i64 4, ptr %9) #13
  %20 = load ptr, ptr %5, align 8, !tbaa !46
  %21 = load double, ptr %6, align 8, !tbaa !47
  %22 = load ptr, ptr %7, align 8, !tbaa !10
  %23 = load ptr, ptr %20, align 8, !tbaa !11
  %24 = getelementptr inbounds ptr, ptr %23, i64 6
  %25 = load ptr, ptr %24, align 8
  call void %25(ptr noundef nonnull align 8 dereferenceable(72) %20, double noundef %21, i8 noundef signext 0, ptr noundef nonnull align 4 dereferenceable(4) %8, ptr noundef nonnull align 4 dereferenceable(4) %9, ptr noundef nonnull align 4 dereferenceable(4) %22)
  %26 = load ptr, ptr %7, align 8, !tbaa !10
  %27 = load i32, ptr %26, align 4, !tbaa !30
  %28 = call noundef signext i8 @_ZL9U_FAILURE10UErrorCode(i32 noundef %27)
  %29 = icmp ne i8 %28, 0
  br i1 %29, label %30, label %31

30:                                               ; preds = %19
  store double 0.000000e+00, ptr %4, align 8
  store i32 1, ptr %10, align 4
  br label %39

31:                                               ; preds = %19
  %32 = load double, ptr %6, align 8, !tbaa !47
  %33 = load i32, ptr %8, align 4, !tbaa !29
  %34 = load i32, ptr %9, align 4, !tbaa !29
  %35 = add nsw i32 %33, %34
  %36 = sitofp i32 %35 to double
  %37 = fadd double %32, %36
  %38 = call noundef double @_ZN6icu_779ClockMath11floorDivideEdd(double noundef %37, double noundef 8.640000e+07)
  store double %38, ptr %4, align 8
  store i32 1, ptr %10, align 4
  br label %39

39:                                               ; preds = %31, %30
  call void @llvm.lifetime.end.p0(i64 4, ptr %9) #13
  call void @llvm.lifetime.end.p0(i64 4, ptr %8) #13
  br label %44

40:                                               ; preds = %16
  %41 = load double, ptr %6, align 8, !tbaa !47
  %42 = fadd double %41, 2.880000e+07
  %43 = call noundef double @_ZN6icu_779ClockMath11floorDivideEdd(double noundef %42, double noundef 8.640000e+07)
  store double %43, ptr %4, align 8
  br label %44

44:                                               ; preds = %40, %39, %15
  %45 = load double, ptr %4, align 8
  ret double %45
}

; Function Attrs: mustprogress uwtable
define internal noundef double @_ZN6icu_7712_GLOBAL__N_112daysToMillisEPKNS_8TimeZoneEdR10UErrorCode(ptr noundef %0, double noundef %1, ptr noundef nonnull align 4 dereferenceable(4) %2) #0 {
  %4 = alloca double, align 8
  %5 = alloca ptr, align 8
  %6 = alloca double, align 8
  %7 = alloca ptr, align 8
  %8 = alloca double, align 8
  %9 = alloca i32, align 4
  %10 = alloca i32, align 4
  %11 = alloca i32, align 4
  store ptr %0, ptr %5, align 8, !tbaa !46
  store double %1, ptr %6, align 8, !tbaa !47
  store ptr %2, ptr %7, align 8, !tbaa !10
  %12 = load ptr, ptr %7, align 8, !tbaa !10
  %13 = load i32, ptr %12, align 4, !tbaa !30
  %14 = call noundef signext i8 @_ZL9U_FAILURE10UErrorCode(i32 noundef %13)
  %15 = icmp ne i8 %14, 0
  br i1 %15, label %16, label %17

16:                                               ; preds = %3
  store double 0.000000e+00, ptr %4, align 8
  br label %46

17:                                               ; preds = %3
  call void @llvm.lifetime.start.p0(i64 8, ptr %8) #13
  %18 = load double, ptr %6, align 8, !tbaa !47
  %19 = fmul double %18, 8.640000e+07
  store double %19, ptr %8, align 8, !tbaa !47
  %20 = load ptr, ptr %5, align 8, !tbaa !46
  %21 = icmp ne ptr %20, null
  br i1 %21, label %22, label %42

22:                                               ; preds = %17
  call void @llvm.lifetime.start.p0(i64 4, ptr %9) #13
  call void @llvm.lifetime.start.p0(i64 4, ptr %10) #13
  %23 = load ptr, ptr %5, align 8, !tbaa !46
  %24 = load double, ptr %8, align 8, !tbaa !47
  %25 = load ptr, ptr %7, align 8, !tbaa !10
  %26 = load ptr, ptr %23, align 8, !tbaa !11
  %27 = getelementptr inbounds ptr, ptr %26, i64 6
  %28 = load ptr, ptr %27, align 8
  call void %28(ptr noundef nonnull align 8 dereferenceable(72) %23, double noundef %24, i8 noundef signext 0, ptr noundef nonnull align 4 dereferenceable(4) %9, ptr noundef nonnull align 4 dereferenceable(4) %10, ptr noundef nonnull align 4 dereferenceable(4) %25)
  %29 = load ptr, ptr %7, align 8, !tbaa !10
  %30 = load i32, ptr %29, align 4, !tbaa !30
  %31 = call noundef signext i8 @_ZL9U_FAILURE10UErrorCode(i32 noundef %30)
  %32 = icmp ne i8 %31, 0
  br i1 %32, label %33, label %34

33:                                               ; preds = %22
  store double 0.000000e+00, ptr %4, align 8
  store i32 1, ptr %11, align 4
  br label %41

34:                                               ; preds = %22
  %35 = load double, ptr %8, align 8, !tbaa !47
  %36 = load i32, ptr %9, align 4, !tbaa !29
  %37 = load i32, ptr %10, align 4, !tbaa !29
  %38 = add nsw i32 %36, %37
  %39 = sitofp i32 %38 to double
  %40 = fsub double %35, %39
  store double %40, ptr %4, align 8
  store i32 1, ptr %11, align 4
  br label %41

41:                                               ; preds = %34, %33
  call void @llvm.lifetime.end.p0(i64 4, ptr %10) #13
  call void @llvm.lifetime.end.p0(i64 4, ptr %9) #13
  br label %45

42:                                               ; preds = %17
  %43 = load double, ptr %8, align 8, !tbaa !47
  %44 = fsub double %43, 2.880000e+07
  store double %44, ptr %4, align 8
  store i32 1, ptr %11, align 4
  br label %45

45:                                               ; preds = %42, %41
  call void @llvm.lifetime.end.p0(i64 8, ptr %8) #13
  br label %46

46:                                               ; preds = %45, %16
  %47 = load double, ptr %4, align 8
  ret double %47
}

; Function Attrs: inlinehint mustprogress nounwind uwtable
define internal noundef signext i8 @_ZL9U_FAILURE10UErrorCode(i32 noundef %0) #4 {
  %2 = alloca i32, align 4
  store i32 %0, ptr %2, align 4, !tbaa !30
  %3 = load i32, ptr %2, align 4, !tbaa !30
  %4 = icmp sgt i32 %3, 0
  %5 = zext i1 %4 to i8
  ret i8 %5
}

; Function Attrs: mustprogress uwtable
define internal noundef i32 @_ZN6icu_7712_GLOBAL__N_111newMoonNearEPKNS_8TimeZoneEdaR10UErrorCode(ptr noundef %0, double noundef %1, i8 noundef signext %2, ptr noundef nonnull align 4 dereferenceable(4) %3) #0 personality ptr @__gxx_personality_v0 {
  %5 = alloca i32, align 4
  %6 = alloca ptr, align 8
  %7 = alloca double, align 8
  %8 = alloca i8, align 1
  %9 = alloca ptr, align 8
  %10 = alloca double, align 8
  %11 = alloca i32, align 4
  %12 = alloca %"class.icu_77::CalendarAstronomer", align 8
  %13 = alloca %"class.icu_77::CalendarAstronomer::MoonAge", align 8
  %14 = alloca ptr, align 8
  %15 = alloca i32, align 4
  store ptr %0, ptr %6, align 8, !tbaa !46
  store double %1, ptr %7, align 8, !tbaa !47
  store i8 %2, ptr %8, align 1, !tbaa !38
  store ptr %3, ptr %9, align 8, !tbaa !10
  %16 = load ptr, ptr %9, align 8, !tbaa !10
  %17 = load i32, ptr %16, align 4, !tbaa !30
  %18 = call noundef signext i8 @_ZL9U_FAILURE10UErrorCode(i32 noundef %17)
  %19 = icmp ne i8 %18, 0
  br i1 %19, label %20, label %21

20:                                               ; preds = %4
  store i32 0, ptr %5, align 4
  br label %49

21:                                               ; preds = %4
  call void @llvm.lifetime.start.p0(i64 8, ptr %10) #13
  %22 = load ptr, ptr %6, align 8, !tbaa !46
  %23 = load double, ptr %7, align 8, !tbaa !47
  %24 = load ptr, ptr %9, align 8, !tbaa !10
  %25 = call noundef double @_ZN6icu_7712_GLOBAL__N_112daysToMillisEPKNS_8TimeZoneEdR10UErrorCode(ptr noundef %22, double noundef %23, ptr noundef nonnull align 4 dereferenceable(4) %24)
  store double %25, ptr %10, align 8, !tbaa !47
  %26 = load ptr, ptr %9, align 8, !tbaa !10
  %27 = load i32, ptr %26, align 4, !tbaa !30
  %28 = call noundef signext i8 @_ZL9U_FAILURE10UErrorCode(i32 noundef %27)
  %29 = icmp ne i8 %28, 0
  br i1 %29, label %30, label %31

30:                                               ; preds = %21
  store i32 0, ptr %5, align 4
  store i32 1, ptr %11, align 4
  br label %48

31:                                               ; preds = %21
  %32 = load ptr, ptr %6, align 8, !tbaa !46
  call void @llvm.lifetime.start.p0(i64 64, ptr %12) #13
  %33 = load double, ptr %10, align 8, !tbaa !47
  call void @_ZN6icu_7718CalendarAstronomerC1Ed(ptr noundef nonnull align 8 dereferenceable(57) %12, double noundef %33)
  call void @llvm.lifetime.start.p0(i64 8, ptr %13) #13
  %34 = invoke double @_ZN6icu_7718CalendarAstronomer8NEW_MOONEv()
          to label %35 unwind label %44

35:                                               ; preds = %31
  %36 = getelementptr inbounds nuw %"class.icu_77::CalendarAstronomer::MoonAge", ptr %13, i32 0, i32 0
  store double %34, ptr %36, align 8
  %37 = load i8, ptr %8, align 1, !tbaa !38
  %38 = invoke noundef double @_ZN6icu_7718CalendarAstronomer11getMoonTimeERKNS0_7MoonAgeEa(ptr noundef nonnull align 8 dereferenceable(57) %12, ptr noundef nonnull align 8 dereferenceable(8) %13, i8 noundef signext %37)
          to label %39 unwind label %44

39:                                               ; preds = %35
  %40 = load ptr, ptr %9, align 8, !tbaa !10
  %41 = invoke noundef double @_ZN6icu_7712_GLOBAL__N_112millisToDaysEPKNS_8TimeZoneEdR10UErrorCode(ptr noundef %32, double noundef %38, ptr noundef nonnull align 4 dereferenceable(4) %40)
          to label %42 unwind label %44

42:                                               ; preds = %39
  %43 = fptosi double %41 to i32
  store i32 %43, ptr %5, align 4
  call void @llvm.lifetime.end.p0(i64 8, ptr %13) #13
  call void @_ZN6icu_7718CalendarAstronomerD1Ev(ptr noundef nonnull align 8 dereferenceable(57) %12) #13
  call void @llvm.lifetime.end.p0(i64 64, ptr %12) #13
  store i32 1, ptr %11, align 4
  br label %48

44:                                               ; preds = %39, %35, %31
  %45 = landingpad { ptr, i32 }
          cleanup
  %46 = extractvalue { ptr, i32 } %45, 0
  store ptr %46, ptr %14, align 8
  %47 = extractvalue { ptr, i32 } %45, 1
  store i32 %47, ptr %15, align 4
  call void @llvm.lifetime.end.p0(i64 8, ptr %13) #13
  call void @_ZN6icu_7718CalendarAstronomerD1Ev(ptr noundef nonnull align 8 dereferenceable(57) %12) #13
  call void @llvm.lifetime.end.p0(i64 64, ptr %12) #13
  call void @llvm.lifetime.end.p0(i64 8, ptr %10) #13
  br label %51

48:                                               ; preds = %42, %30
  call void @llvm.lifetime.end.p0(i64 8, ptr %10) #13
  br label %49

49:                                               ; preds = %48, %20
  %50 = load i32, ptr %5, align 4
  ret i32 %50

51:                                               ; preds = %44
  %52 = load ptr, ptr %14, align 8
  %53 = load i32, ptr %15, align 4
  %54 = insertvalue { ptr, i32 } poison, ptr %52, 0
  %55 = insertvalue { ptr, i32 } %54, i32 %53, 1
  resume { ptr, i32 } %55
}