; Function Attrs: mustprogress uwtable
define internal fastcc noundef i32 @_ZN6icu_7712_GLOBAL__N_111newMoonNearEPKNS_8TimeZoneEdaR10UErrorCode(ptr noundef %0, double noundef %1, i8 noundef signext range(i8 0, 2) %2, ptr noundef nonnull align 4 dereferenceable(4) %3) unnamed_addr #0 personality ptr @__gxx_personality_v0 {
  %5 = alloca i32, align 4
  %6 = alloca i32, align 4
  %7 = alloca i32, align 4
  %8 = alloca i32, align 4
  %9 = alloca %"class.icu_77::CalendarAstronomer", align 8
  %10 = alloca %"class.icu_77::CalendarAstronomer::MoonAge", align 8
  %11 = load i32, ptr %3, align 4, !tbaa !21
  %12 = icmp slt i32 %11, 1
  br i1 %12, label %13, label %56

13:                                               ; preds = %4
  %14 = fmul double %1, 8.640000e+07
  %.not11.i = icmp eq ptr %0, null
  br i1 %.not11.i, label %_ZN6icu_7712_GLOBAL__N_112daysToMillisEPKNS_8TimeZoneEdR10UErrorCode.exit.thread, label %15

15:                                               ; preds = %13
  call void @llvm.lifetime.start.p0(i64 4, ptr nonnull %7) #8
  call void @llvm.lifetime.start.p0(i64 4, ptr nonnull %8) #8
  %16 = load ptr, ptr %0, align 8, !tbaa !3
  %17 = getelementptr inbounds nuw i8, ptr %16, i64 48
  %18 = load ptr, ptr %17, align 8
  call void %18(ptr noundef nonnull align 8 dereferenceable(72) %0, double noundef %14, i8 noundef signext 0, ptr noundef nonnull align 4 dereferenceable(4) %7, ptr noundef nonnull align 4 dereferenceable(4) %8, ptr noundef nonnull align 4 dereferenceable(4) %3)
  %19 = load i32, ptr %3, align 4, !tbaa !21
  %20 = icmp slt i32 %19, 1
  br i1 %20, label %_ZN6icu_7712_GLOBAL__N_112daysToMillisEPKNS_8TimeZoneEdR10UErrorCode.exit.thread18, label %_ZN6icu_7712_GLOBAL__N_112daysToMillisEPKNS_8TimeZoneEdR10UErrorCode.exit

_ZN6icu_7712_GLOBAL__N_112daysToMillisEPKNS_8TimeZoneEdR10UErrorCode.exit.thread18: ; preds = %15
  %21 = load i32, ptr %7, align 4, !tbaa !20
  %22 = load i32, ptr %8, align 4, !tbaa !20
  %23 = add nsw i32 %22, %21
  %24 = sitofp i32 %23 to double
  %25 = fsub double %14, %24
  call void @llvm.lifetime.end.p0(i64 4, ptr nonnull %8) #8
  call void @llvm.lifetime.end.p0(i64 4, ptr nonnull %7) #8
  br label %27

_ZN6icu_7712_GLOBAL__N_112daysToMillisEPKNS_8TimeZoneEdR10UErrorCode.exit.thread: ; preds = %13
  %26 = fadd double %14, -2.880000e+07
  br label %27

_ZN6icu_7712_GLOBAL__N_112daysToMillisEPKNS_8TimeZoneEdR10UErrorCode.exit: ; preds = %15
  call void @llvm.lifetime.end.p0(i64 4, ptr nonnull %8) #8
  call void @llvm.lifetime.end.p0(i64 4, ptr nonnull %7) #8
  br label %56

27:                                               ; preds = %_ZN6icu_7712_GLOBAL__N_112daysToMillisEPKNS_8TimeZoneEdR10UErrorCode.exit.thread18, %_ZN6icu_7712_GLOBAL__N_112daysToMillisEPKNS_8TimeZoneEdR10UErrorCode.exit.thread
  %.0.i17 = phi double [ %26, %_ZN6icu_7712_GLOBAL__N_112daysToMillisEPKNS_8TimeZoneEdR10UErrorCode.exit.thread ], [ %25, %_ZN6icu_7712_GLOBAL__N_112daysToMillisEPKNS_8TimeZoneEdR10UErrorCode.exit.thread18 ]
  call void @llvm.lifetime.start.p0(i64 64, ptr nonnull %9) #8
  call void @_ZN6icu_7718CalendarAstronomerC1Ed(ptr noundef nonnull align 8 dereferenceable(57) %9, double noundef %.0.i17)
  call void @llvm.lifetime.start.p0(i64 8, ptr nonnull %10) #8
  %28 = invoke double @_ZN6icu_7718CalendarAstronomer8NEW_MOONEv()
          to label %29 unwind label %54

29:                                               ; preds = %27
  store double %28, ptr %10, align 8
  %30 = invoke noundef double @_ZN6icu_7718CalendarAstronomer11getMoonTimeERKNS0_7MoonAgeEa(ptr noundef nonnull align 8 dereferenceable(57) %9, ptr noundef nonnull align 8 dereferenceable(8) %10, i8 noundef signext %2)
          to label %31 unwind label %54

31:                                               ; preds = %29
  %32 = load i32, ptr %3, align 4, !tbaa !21
  %33 = icmp slt i32 %32, 1
  br i1 %33, label %34, label %_ZN6icu_7712_GLOBAL__N_112millisToDaysEPKNS_8TimeZoneEdR10UErrorCode.exit

34:                                               ; preds = %31
  br i1 %.not11.i, label %49, label %35

35:                                               ; preds = %34
  call void @llvm.lifetime.start.p0(i64 4, ptr nonnull %5) #8
  call void @llvm.lifetime.start.p0(i64 4, ptr nonnull %6) #8
  %36 = load ptr, ptr %0, align 8, !tbaa !3
  %37 = getelementptr inbounds nuw i8, ptr %36, i64 48
  %38 = load ptr, ptr %37, align 8
  invoke void %38(ptr noundef nonnull align 8 dereferenceable(72) %0, double noundef %30, i8 noundef signext 0, ptr noundef nonnull align 4 dereferenceable(4) %5, ptr noundef nonnull align 4 dereferenceable(4) %6, ptr noundef nonnull align 4 dereferenceable(4) %3)
          to label %.noexc unwind label %54

.noexc:                                           ; preds = %35
  %39 = load i32, ptr %3, align 4, !tbaa !21
  %40 = icmp slt i32 %39, 1
  br i1 %40, label %41, label %.noexc14

41:                                               ; preds = %.noexc
  %42 = load i32, ptr %5, align 4, !tbaa !20
  %43 = load i32, ptr %6, align 4, !tbaa !20
  %44 = add nsw i32 %43, %42
  %45 = sitofp i32 %44 to double
  %46 = fadd double %30, %45
  %47 = fdiv double %46, 8.640000e+07
  %48 = invoke noundef double @uprv_floor_77(double noundef %47)
          to label %.noexc14 unwind label %54

.noexc14:                                         ; preds = %41, %.noexc
  %.1.i13 = phi double [ 0.000000e+00, %.noexc ], [ %48, %41 ]
  call void @llvm.lifetime.end.p0(i64 4, ptr nonnull %6) #8
  call void @llvm.lifetime.end.p0(i64 4, ptr nonnull %5) #8
  br label %_ZN6icu_7712_GLOBAL__N_112millisToDaysEPKNS_8TimeZoneEdR10UErrorCode.exit

49:                                               ; preds = %34
  %50 = fadd double %30, 2.880000e+07
  %51 = fdiv double %50, 8.640000e+07
  %52 = invoke noundef double @uprv_floor_77(double noundef %51)
          to label %_ZN6icu_7712_GLOBAL__N_112millisToDaysEPKNS_8TimeZoneEdR10UErrorCode.exit unwind label %54

_ZN6icu_7712_GLOBAL__N_112millisToDaysEPKNS_8TimeZoneEdR10UErrorCode.exit: ; preds = %.noexc14, %31, %49
  %.0.i12 = phi double [ %.1.i13, %.noexc14 ], [ 0.000000e+00, %31 ], [ %52, %49 ]
  %53 = fptosi double %.0.i12 to i32
  call void @llvm.lifetime.end.p0(i64 8, ptr nonnull %10) #8
  call void @_ZN6icu_7718CalendarAstronomerD1Ev(ptr noundef nonnull align 8 dereferenceable(57) %9) #8
  call void @llvm.lifetime.end.p0(i64 64, ptr nonnull %9) #8
  br label %56

54:                                               ; preds = %49, %41, %35, %29, %27
  %55 = landingpad { ptr, i32 }
          cleanup
  call void @llvm.lifetime.end.p0(i64 8, ptr nonnull %10) #8
  call void @_ZN6icu_7718CalendarAstronomerD1Ev(ptr noundef nonnull align 8 dereferenceable(57) %9) #8
  call void @llvm.lifetime.end.p0(i64 64, ptr nonnull %9) #8
  resume { ptr, i32 } %55

56:                                               ; preds = %_ZN6icu_7712_GLOBAL__N_112daysToMillisEPKNS_8TimeZoneEdR10UErrorCode.exit, %_ZN6icu_7712_GLOBAL__N_112millisToDaysEPKNS_8TimeZoneEdR10UErrorCode.exit, %4
  %.0 = phi i32 [ 0, %4 ], [ %53, %_ZN6icu_7712_GLOBAL__N_112millisToDaysEPKNS_8TimeZoneEdR10UErrorCode.exit ], [ 0, %_ZN6icu_7712_GLOBAL__N_112daysToMillisEPKNS_8TimeZoneEdR10UErrorCode.exit ]
  ret i32 %.0
}